target datalayout = "e-m:e-p270:32:32-p271:32:32-p272:64:64-i64:64-i128:128-f80:128-n8:16:32:64-S128"
target triple = "x86_64-pc-linux-gnu"

%"class.clang::OMPClause" = type { %"class.clang::SourceLocation", %"class.clang::SourceLocation", i32 }
%"class.clang::SourceLocation" = type { i32 }
%"class.clang::OMPUsesAllocatorsClause" = type { %"class.clang::OMPClause", %"class.clang::SourceLocation", i32, [4 x i8] }
%"struct.clang::OMPUsesAllocatorsClause::Data" = type { ptr, ptr, %"class.clang::SourceLocation", %"class.clang::SourceLocation" }

; Function Attrs: mustprogress nounwind uwtable
define linkonce_odr hidden noundef i32 @_ZNK5clang23OMPUsesAllocatorsClause18numTrailingObjectsEN4llvm25trailing_objects_internal19TrailingObjectsBase13OverloadTokenIPNS_4ExprEEE(ptr noundef nonnull align 8 dereferenceable(24) %0) #0 comdat align 2 {
  %2 = alloca ptr, align 8
  store ptr %0, ptr %2, align 8
  %3 = load ptr, ptr %2, align 8
  %4 = getelementptr inbounds nuw %"class.clang::OMPUsesAllocatorsClause", ptr %3, i32 0, i32 2
  %5 = load i32, ptr %4, align 8
  %6 = mul i32 %5, 2
  ret i32 %6
}

; Function Attrs: mustprogress nounwind uwtable
define linkonce_odr hidden noundef i64 @_ZN4llvm15TrailingObjectsIN5clang23OMPUsesAllocatorsClauseEJPNS1_4ExprENS1_14SourceLocationEEE22callNumTrailingObjectsIS4_EEmPKS2_NS_25trailing_objects_internal19TrailingObjectsBase13OverloadTokenIT_EE(ptr noundef %0) #0 comdat align 2 {
  %2 = alloca ptr, align 8
  store ptr %0, ptr %2, align 8
  %3 = load ptr, ptr %2, align 8
  %4 = call noundef i32 @_ZNK5clang23OMPUsesAllocatorsClause18numTrailingObjectsEN4llvm25trailing_objects_internal19TrailingObjectsBase13OverloadTokenIPNS_4ExprEEE(ptr noundef nonnull align 8 dereferenceable(24) %3)
  %5 = zext i32 %4 to i64
  ret i64 %5
}

; Function Attrs: mustprogress nounwind uwtable
define linkonce_odr hidden noundef i64 @_ZN4llvm15TrailingObjectsIN5clang23OMPUsesAllocatorsClauseEJPNS1_4ExprENS1_14SourceLocationEEE22callNumTrailingObjectsEPKS2_NS_25trailing_objects_internal19TrailingObjectsBase13OverloadTokenIS2_EE(ptr noundef %0) #0 comdat align 2 {
  %2 = alloca ptr, align 8
  store ptr %0, ptr %2, align 8
  ret i64 1
}

; Function Attrs: mustprogress nounwind uwtable
define linkonce_odr hidden noundef ptr @_ZN4llvm15TrailingObjectsIN5clang23OMPUsesAllocatorsClauseEJPNS1_4ExprENS1_14SourceLocationEEE22getTrailingObjectsImplEPKS2_NS_25trailing_objects_internal19TrailingObjectsBase13OverloadTokenIS2_EE(ptr noundef %0) #0 comdat align 2 {
  %2 = alloca ptr, align 8
  store ptr %0, ptr %2, align 8
  %3 = load ptr, ptr %2, align 8
  ret ptr %3
}

; Function Attrs: mustprogress nounwind uwtable
define linkonce_odr hidden noundef ptr @_ZN4llvm25trailing_objects_internal19TrailingObjectsImplILi8EN5clang23OMPUsesAllocatorsClauseENS_15TrailingObjectsIS3_JPNS2_4ExprENS2_14SourceLocationEEEES6_JS7_EE22getTrailingObjectsImplEPKS3_NS0_19TrailingObjectsBase13OverloadTokenIS7_EE(ptr noundef %0) #0 comdat align 2 {
  %2 = alloca ptr, align 8
  %3 = alloca ptr, align 8
  store ptr %0, ptr %2, align 8
  %4 = load ptr, ptr %2, align 8
  %5 = call noundef ptr @_ZN4llvm25trailing_objects_internal19TrailingObjectsImplILi8EN5clang23OMPUsesAllocatorsClauseENS_15TrailingObjectsIS3_JPNS2_4ExprENS2_14SourceLocationEEEES3_JS6_S7_EE22getTrailingObjectsImplEPKS3_NS0_19TrailingObjectsBase13OverloadTokenIS6_EE(ptr noundef %4)
  %6 = load ptr, ptr %2, align 8
  %7 = call noundef i64 @_ZN4llvm15TrailingObjectsIN5clang23OMPUsesAllocatorsClauseEJPNS1_4ExprENS1_14SourceLocationEEE22callNumTrailingObjectsIS4_EEmPKS2_NS_25trailing_objects_internal19TrailingObjectsBase13OverloadTokenIT_EE(ptr noundef %6)
  %8 = getelementptr inbounds ptr, ptr %5, i64 %7
  store ptr %8, ptr %3, align 8
  %9 = load ptr, ptr %3, align 8
  ret ptr %9
}

; Function Attrs: mustprogress nounwind uwtable
define linkonce_odr hidden noundef ptr @_ZN4llvm25trailing_objects_internal19TrailingObjectsImplILi8EN5clang23OMPUsesAllocatorsClauseENS_15TrailingObjectsIS3_JPNS2_4ExprENS2_14SourceLocationEEEES3_JS6_S7_EE22getTrailingObjectsImplEPKS3_NS0_19TrailingObjectsBase13OverloadTokenIS6_EE(ptr noundef %0) #0 comdat align 2 {
  %2 = alloca ptr, align 8
  %3 = alloca ptr, align 8
  store ptr %0, ptr %2, align 8
  %4 = load ptr, ptr %2, align 8
  %5 = call noundef ptr @_ZN4llvm15TrailingObjectsIN5clang23OMPUsesAllocatorsClauseEJPNS1_4ExprENS1_14SourceLocationEEE22getTrailingObjectsImplEPKS2_NS_25trailing_objects_internal19TrailingObjectsBase13OverloadTokenIS2_EE(ptr noundef %4)
  %6 = load ptr, ptr %2, align 8
  %7 = call noundef i64 @_ZN4llvm15TrailingObjectsIN5clang23OMPUsesAllocatorsClauseEJPNS1_4ExprENS1_14SourceLocationEEE22callNumTrailingObjectsEPKS2_NS_25trailing_objects_internal19TrailingObjectsBase13OverloadTokenIS2_EE(ptr noundef %6)
  %8 = getelementptr inbounds %"class.clang::OMPUsesAllocatorsClause", ptr %5, i64 %7
  store ptr %8, ptr %3, align 8
  %9 = load ptr, ptr %3, align 8
  ret ptr %9
}

; Function Attrs: mustprogress nounwind uwtable
define linkonce_odr hidden void @_ZN4llvm15TrailingObjectsIN5clang23OMPUsesAllocatorsClauseEJPNS1_4ExprENS1_14SourceLocationEEE31verifyTrailingObjectsAssertionsEv() #0 comdat align 2 {
  ret void
}

; Function Attrs: mustprogress nounwind uwtable
define linkonce_odr hidden void @_ZN5clang14SourceLocationC2Ev(ptr noundef nonnull align 4 dereferenceable(4) %0) unnamed_addr #0 comdat align 2 {
  %2 = alloca ptr, align 8
  store ptr %0, ptr %2, align 8
  %3 = load ptr, ptr %2, align 8
  %4 = getelementptr inbounds nuw %"class.clang::SourceLocation", ptr %3, i32 0, i32 0
  store i32 0, ptr %4, align 4
  ret void
}

; Function Attrs: mustprogress nounwind uwtable
define linkonce_odr hidden noundef ptr @_ZNK4llvm15TrailingObjectsIN5clang23OMPUsesAllocatorsClauseEJPNS1_4ExprENS1_14SourceLocationEEE18getTrailingObjectsIS5_EEPKT_v(ptr noundef nonnull align 8 dereferenceable(8) %0) #0 comdat align 2 {
  %2 = alloca ptr, align 8
  store ptr %0, ptr %2, align 8
  %3 = load ptr, ptr %2, align 8
  call void @_ZN4llvm15TrailingObjectsIN5clang23OMPUsesAllocatorsClauseEJPNS1_4ExprENS1_14SourceLocationEEE31verifyTrailingObjectsAssertionsEv()
  %4 = call noundef ptr @_ZN4llvm25trailing_objects_internal19TrailingObjectsImplILi8EN5clang23OMPUsesAllocatorsClauseENS_15TrailingObjectsIS3_JPNS2_4ExprENS2_14SourceLocationEEEES6_JS7_EE22getTrailingObjectsImplEPKS3_NS0_19TrailingObjectsBase13OverloadTokenIS7_EE(ptr noundef %3)
  ret ptr %4
}

; Function Attrs: mustprogress nounwind uwtable
define linkonce_odr hidden noundef ptr @_ZNK4llvm15TrailingObjectsIN5clang23OMPUsesAllocatorsClauseEJPNS1_4ExprENS1_14SourceLocationEEE18getTrailingObjectsIS4_EEPKT_v(ptr noundef nonnull align 8 dereferenceable(8) %0) #0 comdat align 2 {
  %2 = alloca ptr, align 8
  store ptr %0, ptr %2, align 8
  %3 = load ptr, ptr %2, align 8
  call void @_ZN4llvm15TrailingObjectsIN5clang23OMPUsesAllocatorsClauseEJPNS1_4ExprENS1_14SourceLocationEEE31verifyTrailingObjectsAssertionsEv()
  %4 = call noundef ptr @_ZN4llvm25trailing_objects_internal19TrailingObjectsImplILi8EN5clang23OMPUsesAllocatorsClauseENS_15TrailingObjectsIS3_JPNS2_4ExprENS2_14SourceLocationEEEES3_JS6_S7_EE22getTrailingObjectsImplEPKS3_NS0_19TrailingObjectsBase13OverloadTokenIS6_EE(ptr noundef %3)
  ret ptr %4
}

; Function Attrs: mustprogress nounwind uwtable
define linkonce_odr hidden void @_ZN5clang23OMPUsesAllocatorsClause4DataC2Ev(ptr noundef nonnull align 8 dereferenceable(24) %0) unnamed_addr #0 comdat align 2 {
  %2 = alloca ptr, align 8
  store ptr %0, ptr %2, align 8
  %3 = load ptr, ptr %2, align 8
  %4 = getelementptr inbounds nuw %"struct.clang::OMPUsesAllocatorsClause::Data", ptr %3, i32 0, i32 0
  store ptr null, ptr %4, align 8
  %5 = getelementptr inbounds nuw %"struct.clang::OMPUsesAllocatorsClause::Data", ptr %3, i32 0, i32 1
  store ptr null, ptr %5, align 8
  %6 = getelementptr inbounds nuw %"struct.clang::OMPUsesAllocatorsClause::Data", ptr %3, i32 0, i32 2
  call void @_ZN5clang14SourceLocationC2Ev(ptr noundef nonnull align 4 dereferenceable(4) %6) #11
  %7 = getelementptr inbounds nuw %"struct.clang::OMPUsesAllocatorsClause::Data", ptr %3, i32 0, i32 3
  call void @_ZN5clang14SourceLocationC2Ev(ptr noundef nonnull align 4 dereferenceable(4) %7) #11
  ret void
}

; Function Attrs: mustprogress nounwind uwtable
define dso_local void @_ZNK5clang23OMPUsesAllocatorsClause16getAllocatorDataEj(ptr dead_on_unwind noalias writable sret(%"struct.clang::OMPUsesAllocatorsClause::Data") align 8 %0, ptr noundef nonnull align 8 dereferenceable(24) %1, i32 noundef %2) #0 align 2 {
  %4 = alloca ptr, align 8
  %5 = alloca i32, align 4
  store ptr %1, ptr %4, align 8
  store i32 %2, ptr %5, align 4
  %6 = load ptr, ptr %4, align 8
  call void @_ZN5clang23OMPUsesAllocatorsClause4DataC2Ev(ptr noundef nonnull align 8 dereferenceable(24) %0) #11
  %7 = call noundef ptr @_ZNK4llvm15TrailingObjectsIN5clang23OMPUsesAllocatorsClauseEJPNS1_4ExprENS1_14SourceLocationEEE18getTrailingObjectsIS4_EEPKT_v(ptr noundef nonnull align 8 dereferenceable(8) %6)
  %8 = load i32, ptr %5, align 4
  %9 = mul i32 %8, 2
  %10 = add i32 %9, 0
  %11 = zext i32 %10 to i64
  %12 = getelementptr inbounds ptr, ptr %7, i64 %11
  %13 = load ptr, ptr %12, align 8
  %14 = getelementptr inbounds nuw %"struct.clang::OMPUsesAllocatorsClause::Data", ptr %0, i32 0, i32 0
  store ptr %13, ptr %14, align 8
  %15 = call noundef ptr @_ZNK4llvm15TrailingObjectsIN5clang23OMPUsesAllocatorsClauseEJPNS1_4ExprENS1_14SourceLocationEEE18getTrailingObjectsIS4_EEPKT_v(ptr noundef nonnull align 8 dereferenceable(8) %6)
  %16 = load i32, ptr %5, align 4
  %17 = mul i32 %16, 2
  %18 = add i32 %17, 1
  %19 = zext i32 %18 to i64
  %20 = getelementptr inbounds ptr, ptr %15, i64 %19
  %21 = load ptr, ptr %20, align 8
  %22 = getelementptr inbounds nuw %"struct.clang::OMPUsesAllocatorsClause::Data", ptr %0, i32 0, i32 1
  store ptr %21, ptr %22, align 8
  %23 = call noundef ptr @_ZNK4llvm15TrailingObjectsIN5clang23OMPUsesAllocatorsClauseEJPNS1_4ExprENS1_14SourceLocationEEE18getTrailingObjectsIS5_EEPKT_v(ptr noundef nonnull align 8 dereferenceable(8) %6)
  %24 = load i32, ptr %5, align 4
  %25 = mul i32 %24, 2
  %26 = add i32 %25, 0
  %27 = zext i32 %26 to i64
  %28 = getelementptr inbounds %"class.clang::SourceLocation", ptr %23, i64 %27
  %29 = getelementptr inbounds nuw %"struct.clang::OMPUsesAllocatorsClause::Data", ptr %0, i32 0, i32 2
  call void @llvm.memcpy.p0.p0.i64(ptr align 8 %29, ptr align 4 %28, i64 4, i1 false)
  %30 = call noundef ptr @_ZNK4llvm15TrailingObjectsIN5clang23OMPUsesAllocatorsClauseEJPNS1_4ExprENS1_14SourceLocationEEE18getTrailingObjectsIS5_EEPKT_v(ptr noundef nonnull align 8 dereferenceable(8) %6)
  %31 = load i32, ptr %5, align 4
  %32 = mul i32 %31, 2
  %33 = add i32 %32, 1
  %34 = zext i32 %33 to i64
  %35 = getelementptr inbounds %"class.clang::SourceLocation", ptr %30, i64 %34
  %36 = getelementptr inbounds nuw %"struct.clang::OMPUsesAllocatorsClause::Data", ptr %0, i32 0, i32 3
  call void @llvm.memcpy.p0.p0.i64(ptr align 4 %36, ptr align 4 %35, i64 4, i1 false)
  ret void
}