; Function Attrs: mustprogress nofree norecurse nosync nounwind willreturn memory(argmem: readwrite) uwtable
define dso_local void @_ZNK5clang23OMPUsesAllocatorsClause16getAllocatorDataEj(ptr dead_on_unwind noalias writable writeonly sret(%"struct.clang::OMPUsesAllocatorsClause::Data") align 8 captures(none) initializes((0, 24)) %0, ptr noundef nonnull readonly align 8 captures(none) dereferenceable(24) %1, i32 noundef %2) local_unnamed_addr #6 align 2 {
  %4 = getelementptr inbounds nuw i8, ptr %1, i64 24
  %5 = shl i32 %2, 1
  %6 = zext i32 %5 to i64
  %7 = getelementptr inbounds nuw ptr, ptr %4, i64 %6
  %8 = load ptr, ptr %7, align 8
  store ptr %8, ptr %0, align 8
  %9 = or disjoint i32 %5, 1
  %10 = zext i32 %9 to i64
  %11 = getelementptr inbounds nuw ptr, ptr %4, i64 %10
  %12 = load ptr, ptr %11, align 8
  %13 = getelementptr inbounds nuw i8, ptr %0, i64 8
  store ptr %12, ptr %13, align 8
  %14 = getelementptr inbounds nuw i8, ptr %1, i64 16
  %15 = load i32, ptr %14, align 8
  %16 = shl i32 %15, 1
  %17 = zext i32 %16 to i64
  %18 = getelementptr inbounds nuw ptr, ptr %4, i64 %17
  %19 = getelementptr inbounds nuw %"class.clang::SourceLocation", ptr %18, i64 %6
  %20 = getelementptr inbounds nuw i8, ptr %0, i64 16
  %21 = load i32, ptr %19, align 8
  store i32 %21, ptr %20, align 8
  %22 = getelementptr inbounds nuw %"class.clang::SourceLocation", ptr %18, i64 %10
  %23 = getelementptr inbounds nuw i8, ptr %0, i64 20
  %24 = load i32, ptr %22, align 4
  store i32 %24, ptr %23, align 4
  ret void
}